; Function Attrs: mustprogress nounwind uwtable
define dso_local void @_ZN4node9inspector15ProtocolHandlerC2EPNS0_15InspectorSocketESt10unique_ptrINS0_9TcpHolderENS_15FunctionDeleterIS5_XadL_ZNS5_20DisconnectAndDisposeEPS5_EEEEE(ptr noundef nonnull align 8 dereferenceable(24) %this, ptr noundef %inspector, ptr nocapture noundef %tcp) unnamed_addr #0 align 2 {
entry:
  store ptr getelementptr inbounds ({ [10 x ptr] }, ptr @_ZTVN4node9inspector15ProtocolHandlerE, i64 0, i32 0, i64 2), ptr %this, align 8
  %inspector_ = getelementptr inbounds i8, ptr %this, i64 8
  store ptr %inspector, ptr %inspector_, align 8
  %tcp_ = getelementptr inbounds i8, ptr %this, i64 16
  %0 = load i64, ptr %tcp, align 8
  store i64 %0, ptr %tcp_, align 8
  store ptr null, ptr %tcp, align 8
  %1 = load ptr, ptr %tcp_, align 8
  %cmp.i.i.not = icmp eq ptr %1, null
  br i1 %cmp.i.i.not, label %do.body5, label %do.end6

do.body5:                                         ; preds = %entry
  tail call void @_ZN4node6AssertERKNS_13AssertionInfoE(ptr noundef nonnull align 8 dereferenceable(24) @_ZZN4node9inspector15ProtocolHandlerC1EPNS0_15InspectorSocketESt10unique_ptrINS0_9TcpHolderENS_15FunctionDeleterIS5_XadL_ZNS5_20DisconnectAndDisposeEPS5_EEEEEE4args) #19
  tail call void @abort() #20
  unreachable

do.end6:                                          ; preds = %entry
  %handler_.i = getelementptr inbounds i8, ptr %1, i64 256
  store ptr %this, ptr %handler_.i, align 8
  ret void
}